

Microchip Technology PIC18 LITE Macro Assembler V1.33 build 59893 
                                                                                               Mon Jan 12 17:01:48 2015

Microchip Technology Omniscient Code Generator (Lite mode) build 59893
     1                           	processor	18F45K50
     2                           	fnconf	rparam,??,?,0
     3                           	opt	pw 120
     4                           	opt	lm
     5                           	psect	smallconst,global,reloc=2,class=SMALLCONST,delta=1
     6                           	psect	cinit,global,reloc=2,class=CODE,delta=1
     7                           	psect	bssCOMRAM,global,class=COMRAM,space=1,delta=1
     8                           	psect	cstackCOMRAM,global,class=COMRAM,space=1,delta=1
     9                           	psect	text0,global,reloc=2,class=CODE,delta=1
    10                           	psect	text1,global,reloc=2,class=CODE,delta=1
    11                           	psect	text2,global,reloc=2,class=CODE,delta=1
    12                           	psect	text3,global,reloc=2,class=CODE,delta=1
    13                           	psect	text4,global,reloc=2,class=CODE,delta=1
    14                           	psect	text5,global,reloc=2,class=CODE,delta=1
    15                           	psect	intsave_regs,global,class=BIGRAM,space=1,delta=1
    16                           	psect	rparam,global,class=COMRAM,space=1,delta=1
    17  0000                     _OSCCON	set	4051
    18  0000                     _PIE1bits	set	3997
    19  0000                     _RCSTA1	set	4011
    20  0000                     _RCSTA1bits	set	4011
    21  0000                     _SPBRG1	set	4015
    22  0000                     _SPBRGH1	set	4016
    23  0000                     _TXREG1	set	4013
    24  0000                     _TXSTA1	set	4012
    25  0000                     _TXSTA1bits	set	4012
    26                           
    27                           	psect	smallconst
    28  000800                     __psmallconst:
    29                           	opt stack 0
    30  000800  00                 	db	0
    31  000801                     __stringdata:
    32                           	opt stack 0
    33  000801                     STR_1:
    34  000801  48                 	db	72	;'H'
    35  000802  65                 	db	101	;'e'
    36  000803  6C                 	db	108	;'l'
    37  000804  6C                 	db	108	;'l'
    38  000805  6F                 	db	111	;'o'
    39  000806  20                 	db	32
    40  000807  57                 	db	87	;'W'
    41  000808  6F                 	db	111	;'o'
    42  000809  72                 	db	114	;'r'
    43  00080A  6C                 	db	108	;'l'
    44  00080B  64                 	db	100	;'d'
    45  00080C  21                 	db	33
    46  00080D  0D                 	db	13
    47  00080E  0A                 	db	10
    48  00080F  00                 	db	0
    49  000810                     __end_of__stringdata:
    50                           	opt stack 0
    51                           
    52                           ; #config settings
    53  000810  00                 	db	0	; dummy byte at the end
    54  0000                     
    55                           	psect	cinit
    56  0008FE                     __pcinit:
    57                           	opt stack 0
    58  0008FE                     start_initialization:
    59                           	opt stack 0
    60  0008FE                     __initialization:
    61                           	opt stack 0
    62                           
    63                           ; Clear objects allocated to COMRAM (1 bytes)
    64  0008FE  6A0C               	clrf	__pbssCOMRAM& (0+255),c
    65  000900                     end_of_initialization:
    66                           	opt stack 0
    67  000900                     __end_of__initialization:
    68                           	opt stack 0
    69  000900  0E00               	movlw	low (__Lsmallconst shr (0+16))
    70  000902  6EF8               	movwf	tblptru,c
    71  000904  0E08               	movlw	high __Lsmallconst
    72  000906  6EF7               	movwf	tblptrh,c
    73  000908  0100               	movlb	0
    74  00090A  EF35  F004         	goto	_main	;jump to C main() function
    75                           tblptru	equ	0xFF8
    76                           tblptrh	equ	0xFF7
    77                           
    78                           	psect	bssCOMRAM
    79  00000C                     __pbssCOMRAM:
    80                           	opt stack 0
    81  00000C                     _USART1_Status:
    82                           	opt stack 0
    83  00000C                     	ds	1
    84                           tblptru	equ	0xFF8
    85                           tblptrh	equ	0xFF7
    86                           
    87                           	psect	cstackCOMRAM
    88  000001                     __pcstackCOMRAM:
    89                           	opt stack 0
    90  000001                     Write1USART@data:
    91                           	opt stack 0
    92  000001                     Open1USART@spbrg:
    93                           	opt stack 0
    94                           
    95                           ; 2 bytes @ 0x0
    96  000001                     	ds	1
    97  000002                     putrs1USART@data:
    98                           	opt stack 0
    99                           
   100                           ; 2 bytes @ 0x1
   101  000002                     	ds	1
   102  000003                     ??_Open1USART:
   103                           
   104                           ; 0 bytes @ 0x2
   105  000003                     	ds	1
   106  000004                     
   107                           ; 0 bytes @ 0x3
   108  000004                     	ds	2
   109  000006                     Open1USART@config:
   110                           	opt stack 0
   111                           
   112                           ; 1 bytes @ 0x5
   113  000006                     	ds	1
   114  000007                     configUSART@config:
   115                           	opt stack 0
   116                           
   117                           ; 1 bytes @ 0x6
   118  000007                     	ds	1
   119  000008                     configUSART@spbrg:
   120                           	opt stack 0
   121                           
   122                           ; 1 bytes @ 0x7
   123  000008                     	ds	1
   124  000009                     ??_main:
   125                           
   126                           ; 0 bytes @ 0x8
   127  000009                     	ds	1
   128  00000A                     main@delay:
   129                           	opt stack 0
   130                           
   131                           ; 2 bytes @ 0x9
   132  00000A                     	ds	2
   133                           tblptru	equ	0xFF8
   134                           tblptrh	equ	0xFF7
   135                           
   136 ;;
   137 ;;Main: autosize = 0, tempsize = 1, incstack = 0, save=0
   138 ;;
   139 ;; *************** function _main *****************
   140 ;; Defined at:
   141 ;;		line 42 in file "PICUART.c"
   142 ;; Parameters:    Size  Location     Type
   143 ;;		None
   144 ;; Auto vars:     Size  Location     Type
   145 ;;  delay           2    9[COMRAM] int 
   146 ;; Return value:  Size  Location     Type
   147 ;;		None               void
   148 ;; Registers used:
   149 ;;		wreg, status,2, status,0, tblptrl, tblptrh, tblptru, cstack
   150 ;; Tracked objects:
   151 ;;		On entry : 0/0
   152 ;;		On exit  : 0/0
   153 ;;		Unchanged: 0/0
   154 ;; Data sizes:     COMRAM   BANK0   BANK1   BANK2   BANK3   BANK4   BANK5   BANK6   BANK7
   155 ;;      Params:         0       0       0       0       0       0       0       0       0
   156 ;;      Locals:         2       0       0       0       0       0       0       0       0
   157 ;;      Temps:          1       0       0       0       0       0       0       0       0
   158 ;;      Totals:         3       0       0       0       0       0       0       0       0
   159 ;;Total ram usage:        3 bytes
   160 ;; Hardware stack levels required when called:    2
   161 ;; This function calls:
   162 ;;		_configOscillator
   163 ;;		_configUSART
   164 ;;		_putrs1USART
   165 ;; This function is called by:
   166 ;;		Startup code after reset
   167 ;; This function uses a non-reentrant model
   168 ;;
   169                           
   170                           	psect	text0
   171  00086A                     __ptext0:
   172                           	opt stack 0
   173  00086A                     _main:
   174                           	opt stack 29
   175                           
   176                           ;PICUART.c: 44: configOscillator();
   177                           
   178                           ;incstack = 0
   179  00086A  EC87  F004         	call	_configOscillator	;wreg free
   180                           
   181                           ;PICUART.c: 45: configUSART();
   182  00086E  EC6B  F004         	call	_configUSART	;wreg free
   183  000872                     l719:
   184                           
   185                           ;PICUART.c: 48: {
   186                           ;PICUART.c: 49: putrs1USART("Hello World!\r\n");
   187  000872  0E08               	movlw	high STR_1
   188  000874  6E03               	movwf	putrs1USART@data+1,c
   189  000876  0E01               	movlw	low STR_1
   190  000878  6E02               	movwf	putrs1USART@data,c
   191  00087A  EC55  F004         	call	_putrs1USART	;wreg free
   192                           
   193                           ;PICUART.c: 50: for(int delay = 0; delay < 20; delay++) _delay((unsigned long)((50)*(800
      +                          0000/4000.0)));
   194  00087E  0E00               	movlw	0
   195  000880  6E0B               	movwf	main@delay+1,c
   196  000882  0E00               	movlw	0
   197  000884  6E0A               	movwf	main@delay,c
   198  000886  500B               	movf	main@delay+1,w,c
   199  000888  0A80               	xorlw	128
   200  00088A  0F80               	addlw	-128
   201  00088C  0E14               	movlw	20
   202  00088E  B4D8               	btfsc	status,2,c
   203  000890  5C0A               	subwf	main@delay,w,c
   204  000892  B0D8               	btfsc	status,0,c
   205  000894  D7EE               	goto	l719
   206  000896  0E82               	movlw	130
   207  000898  6E09               	movwf	??_main& (0+255),c
   208  00089A  0EDE               	movlw	222
   209  00089C                     u157:
   210  00089C  2EE8               	decfsz	wreg,f,c
   211  00089E  D7FE               	goto	u157
   212  0008A0  2E09               	decfsz	??_main& (0+255),f,c
   213  0008A2  D7FC               	goto	u157
   214  0008A4  4A0A               	infsnz	main@delay,f,c
   215  0008A6  2A0B               	incf	main@delay+1,f,c
   216  0008A8  D7EE               	goto	L1
   217  0008AA                     __end_of_main:
   218                           	opt stack 0
   219                           tblptru	equ	0xFF8
   220                           tblptrh	equ	0xFF7
   221                           wreg	equ	0xFE8
   222                           status	equ	0xFD8
   223                           
   224 ;; *************** function _putrs1USART *****************
   225 ;; Defined at:
   226 ;;		line 15 in file "C:\PROGRAM FILES (X86)\MICROCHIP\XC8\V1.33\sources\pic18\plib\USART\u1putrs.c"
   227 ;; Parameters:    Size  Location     Type
   228 ;;  data            2    1[COMRAM] PTR const unsigned char 
   229 ;;		 -> STR_1(15), 
   230 ;; Auto vars:     Size  Location     Type
   231 ;;		None
   232 ;; Return value:  Size  Location     Type
   233 ;;		None               void
   234 ;; Registers used:
   235 ;;		wreg, status,2, status,0, tblptrl, tblptrh, tblptru, cstack
   236 ;; Tracked objects:
   237 ;;		On entry : 0/0
   238 ;;		On exit  : 0/0
   239 ;;		Unchanged: 0/0
   240 ;; Data sizes:     COMRAM   BANK0   BANK1   BANK2   BANK3   BANK4   BANK5   BANK6   BANK7
   241 ;;      Params:         2       0       0       0       0       0       0       0       0
   242 ;;      Locals:         0       0       0       0       0       0       0       0       0
   243 ;;      Temps:          0       0       0       0       0       0       0       0       0
   244 ;;      Totals:         2       0       0       0       0       0       0       0       0
   245 ;;Total ram usage:        2 bytes
   246 ;; Hardware stack levels used:    1
   247 ;; Hardware stack levels required when called:    1
   248 ;; This function calls:
   249 ;;		_Write1USART
   250 ;; This function is called by:
   251 ;;		_main
   252 ;; This function uses a non-reentrant model
   253 ;;
   254                           
   255                           	psect	text1
   256  0008AA                     __ptext1:
   257                           	opt stack 0
   258  0008AA                     _putrs1USART:
   259                           	opt stack 29
   260  0008AA                     l58:
   261  0008AA  A2AC               	btfss	4012,1,c	;volatile
   262  0008AC  D7FE               	goto	l58
   263  0008AE  C002  FFF6         	movff	putrs1USART@data,tblptrl
   264  0008B2  C003  FFF7         	movff	putrs1USART@data+1,tblptrh
   265  0008B6                     	if	0	;tblptru may be non-zero
   266  0008B6                     	endif
   267  0008B6                     	if	0	;tblptru may be non-zero
   268  0008B6                     	endif
   269  0008B6  0008               	tblrd		*
   270  0008B8  50F5               	movf	tablat,w,c
   271  0008BA  EC76  F004         	call	_Write1USART
   272  0008BE  C002  FFF6         	movff	putrs1USART@data,tblptrl
   273  0008C2  C003  FFF7         	movff	putrs1USART@data+1,tblptrh
   274  0008C6  4A02               	infsnz	putrs1USART@data,f,c
   275  0008C8  2A03               	incf	putrs1USART@data+1,f,c
   276  0008CA                     	if	0	;tblptru may be non-zero
   277  0008CA                     	endif
   278  0008CA                     	if	0	;tblptru may be non-zero
   279  0008CA                     	endif
   280  0008CA  0008               	tblrd		*
   281  0008CC  50F5               	movf	tablat,w,c
   282  0008CE  0900               	iorlw	0
   283  0008D0  B4D8               	btfsc	status,2,c
   284  0008D2  0012               	return	
   285  0008D4  D7EA               	goto	l58
   286  0008D6                     __end_of_putrs1USART:
   287                           	opt stack 0
   288                           tblptru	equ	0xFF8
   289                           tblptrh	equ	0xFF7
   290                           tblptrl	equ	0xFF6
   291                           tablat	equ	0xFF5
   292                           wreg	equ	0xFE8
   293                           status	equ	0xFD8
   294                           
   295 ;; *************** function _Write1USART *****************
   296 ;; Defined at:
   297 ;;		line 14 in file "C:\PROGRAM FILES (X86)\MICROCHIP\XC8\V1.33\sources\pic18\plib\USART\u1write.c"
   298 ;; Parameters:    Size  Location     Type
   299 ;;  data            1    wreg     unsigned char 
   300 ;; Auto vars:     Size  Location     Type
   301 ;;  data            1    0[COMRAM] unsigned char 
   302 ;; Return value:  Size  Location     Type
   303 ;;		None               void
   304 ;; Registers used:
   305 ;;		wreg
   306 ;; Tracked objects:
   307 ;;		On entry : 0/0
   308 ;;		On exit  : 0/0
   309 ;;		Unchanged: 0/0
   310 ;; Data sizes:     COMRAM   BANK0   BANK1   BANK2   BANK3   BANK4   BANK5   BANK6   BANK7
   311 ;;      Params:         0       0       0       0       0       0       0       0       0
   312 ;;      Locals:         1       0       0       0       0       0       0       0       0
   313 ;;      Temps:          0       0       0       0       0       0       0       0       0
   314 ;;      Totals:         1       0       0       0       0       0       0       0       0
   315 ;;Total ram usage:        1 bytes
   316 ;; Hardware stack levels used:    1
   317 ;; This function calls:
   318 ;;		Nothing
   319 ;; This function is called by:
   320 ;;		_putrs1USART
   321 ;; This function uses a non-reentrant model
   322 ;;
   323                           
   324                           	psect	text2
   325  0008EC                     __ptext2:
   326                           	opt stack 0
   327  0008EC                     _Write1USART:
   328                           	opt stack 29
   329                           
   330                           ;incstack = 0
   331                           ;Write1USART@data stored from wreg
   332  0008EC  6E01               	movwf	Write1USART@data,c
   333  0008EE  ACAC               	btfss	4012,6,c	;volatile
   334  0008F0  D003               	goto	l705
   335  0008F2  90AC               	bcf	4012,0,c	;volatile
   336  0008F4  B20C               	btfsc	_USART1_Status,1,c
   337  0008F6  80AC               	bsf	4012,0,c	;volatile
   338  0008F8                     l705:
   339  0008F8  C001  FFAD         	movff	Write1USART@data,4013	;volatile
   340  0008FC  0012               	return	
   341  0008FE                     __end_of_Write1USART:
   342                           	opt stack 0
   343                           tblptru	equ	0xFF8
   344                           tblptrh	equ	0xFF7
   345                           tblptrl	equ	0xFF6
   346                           tablat	equ	0xFF5
   347                           wreg	equ	0xFE8
   348                           status	equ	0xFD8
   349                           
   350 ;; *************** function _configUSART *****************
   351 ;; Defined at:
   352 ;;		line 29 in file "PICUART.c"
   353 ;; Parameters:    Size  Location     Type
   354 ;;		None
   355 ;; Auto vars:     Size  Location     Type
   356 ;;  spbrg           1    7[COMRAM] unsigned char 
   357 ;;  config          1    6[COMRAM] unsigned char 
   358 ;; Return value:  Size  Location     Type
   359 ;;		None               void
   360 ;; Registers used:
   361 ;;		wreg, status,2, cstack
   362 ;; Tracked objects:
   363 ;;		On entry : 0/0
   364 ;;		On exit  : 0/0
   365 ;;		Unchanged: 0/0
   366 ;; Data sizes:     COMRAM   BANK0   BANK1   BANK2   BANK3   BANK4   BANK5   BANK6   BANK7
   367 ;;      Params:         0       0       0       0       0       0       0       0       0
   368 ;;      Locals:         2       0       0       0       0       0       0       0       0
   369 ;;      Temps:          0       0       0       0       0       0       0       0       0
   370 ;;      Totals:         2       0       0       0       0       0       0       0       0
   371 ;;Total ram usage:        2 bytes
   372 ;; Hardware stack levels used:    1
   373 ;; Hardware stack levels required when called:    1
   374 ;; This function calls:
   375 ;;		_Open1USART
   376 ;; This function is called by:
   377 ;;		_main
   378 ;; This function uses a non-reentrant model
   379 ;;
   380                           
   381                           	psect	text3
   382  0008D6                     __ptext3:
   383                           	opt stack 0
   384  0008D6                     _configUSART:
   385                           	opt stack 29
   386                           
   387                           ;PICUART.c: 36: unsigned char config = 0b01111111 & 0b10111111 & 0b11111110 & 0b11111101
      +                           & 0b11111111;
   388                           
   389                           ;incstack = 0
   390  0008D6  0E3C               	movlw	60
   391  0008D8  6E07               	movwf	configUSART@config,c
   392                           
   393                           ;PICUART.c: 37: unsigned char spbrg = 51;
   394  0008DA  0E33               	movlw	51
   395  0008DC  6E08               	movwf	configUSART@spbrg,c
   396                           
   397                           ;PICUART.c: 38: Open1USART(config, spbrg);
   398  0008DE  C008  F001         	movff	configUSART@spbrg,Open1USART@spbrg
   399  0008E2  6A02               	clrf	Open1USART@spbrg+1,c
   400  0008E4  5007               	movf	configUSART@config,w,c
   401  0008E6  EC09  F004         	call	_Open1USART
   402  0008EA  0012               	return	
   403  0008EC                     __end_of_configUSART:
   404                           	opt stack 0
   405                           tblptru	equ	0xFF8
   406                           tblptrh	equ	0xFF7
   407                           tblptrl	equ	0xFF6
   408                           tablat	equ	0xFF5
   409                           wreg	equ	0xFE8
   410                           status	equ	0xFD8
   411                           
   412 ;; *************** function _Open1USART *****************
   413 ;; Defined at:
   414 ;;		line 124 in file "C:\PROGRAM FILES (X86)\MICROCHIP\XC8\V1.33\sources\pic18\plib\USART\u1open.c"
   415 ;; Parameters:    Size  Location     Type
   416 ;;  config          1    wreg     unsigned char 
   417 ;;  spbrg           2    0[COMRAM] unsigned int 
   418 ;; Auto vars:     Size  Location     Type
   419 ;;  config          1    5[COMRAM] unsigned char 
   420 ;; Return value:  Size  Location     Type
   421 ;;		None               void
   422 ;; Registers used:
   423 ;;		wreg, status,2
   424 ;; Tracked objects:
   425 ;;		On entry : 0/0
   426 ;;		On exit  : 0/0
   427 ;;		Unchanged: 0/0
   428 ;; Data sizes:     COMRAM   BANK0   BANK1   BANK2   BANK3   BANK4   BANK5   BANK6   BANK7
   429 ;;      Params:         2       0       0       0       0       0       0       0       0
   430 ;;      Locals:         1       0       0       0       0       0       0       0       0
   431 ;;      Temps:          3       0       0       0       0       0       0       0       0
   432 ;;      Totals:         6       0       0       0       0       0       0       0       0
   433 ;;Total ram usage:        6 bytes
   434 ;; Hardware stack levels used:    1
   435 ;; This function calls:
   436 ;;		Nothing
   437 ;; This function is called by:
   438 ;;		_configUSART
   439 ;; This function uses a non-reentrant model
   440 ;;
   441                           
   442                           	psect	text4
   443  000812                     __ptext4:
   444                           	opt stack 0
   445  000812                     _Open1USART:
   446                           	opt stack 29
   447                           
   448                           ;incstack = 0
   449                           ;Open1USART@config stored from wreg
   450  000812  6E06               	movwf	Open1USART@config,c
   451  000814  0E00               	movlw	0
   452  000816  6EAC               	movwf	4012,c	;volatile
   453  000818  0E00               	movlw	0
   454  00081A  6EAB               	movwf	4011,c	;volatile
   455  00081C  B006               	btfsc	Open1USART@config,0,c
   456  00081E  88AC               	bsf	4012,4,c	;volatile
   457  000820  A206               	btfss	Open1USART@config,1,c
   458  000822  D002               	goto	l669
   459  000824  8CAC               	bsf	4012,6,c	;volatile
   460  000826  8CAB               	bsf	4011,6,c	;volatile
   461  000828                     l669:
   462  000828  B406               	btfsc	Open1USART@config,2,c
   463  00082A  8EAC               	bsf	4012,7,c	;volatile
   464  00082C  A606               	btfss	Open1USART@config,3,c
   465  00082E  D002               	goto	l42
   466  000830  88AB               	bsf	4011,4,c	;volatile
   467  000832  D001               	goto	l677
   468  000834                     l42:
   469  000834  8AAB               	bsf	4011,5,c	;volatile
   470  000836                     l677:
   471  000836  B806               	btfsc	Open1USART@config,4,c
   472  000838  84AC               	bsf	4012,2,c	;volatile
   473  00083A  BA06               	btfsc	Open1USART@config,5,c
   474  00083C  86AB               	bsf	4011,3,c	;volatile
   475  00083E  AC06               	btfss	Open1USART@config,6,c
   476  000840  D002               	goto	l46
   477  000842  8A9D               	bsf	3997,5,c	;volatile
   478  000844  D001               	goto	l689
   479  000846                     l46:
   480  000846  9A9D               	bcf	3997,5,c	;volatile
   481  000848                     l689:
   482  000848  AE06               	btfss	Open1USART@config,7,c
   483  00084A  D002               	goto	l48
   484  00084C  889D               	bsf	3997,4,c	;volatile
   485  00084E  D001               	goto	l49
   486  000850                     l48:
   487  000850  989D               	bcf	3997,4,c	;volatile
   488  000852                     l49:
   489  000852  C001  FFAF         	movff	Open1USART@spbrg,4015	;volatile
   490  000856  C002  F003         	movff	Open1USART@spbrg+1,??_Open1USART
   491  00085A  C003  F004         	movff	??_Open1USART,??_Open1USART+1
   492  00085E  6A05               	clrf	(??_Open1USART+2)& (0+255),c
   493  000860  5004               	movf	??_Open1USART+1,w,c
   494  000862  6EB0               	movwf	4016,c	;volatile
   495  000864  8AAC               	bsf	4012,5,c	;volatile
   496  000866  8EAB               	bsf	4011,7,c	;volatile
   497  000868  0012               	return	
   498  00086A                     __end_of_Open1USART:
   499                           	opt stack 0
   500                           tblptru	equ	0xFF8
   501                           tblptrh	equ	0xFF7
   502                           tblptrl	equ	0xFF6
   503                           tablat	equ	0xFF5
   504                           wreg	equ	0xFE8
   505                           status	equ	0xFD8
   506                           
   507 ;; *************** function _configOscillator *****************
   508 ;; Defined at:
   509 ;;		line 14 in file "PICUART.c"
   510 ;; Parameters:    Size  Location     Type
   511 ;;		None
   512 ;; Auto vars:     Size  Location     Type
   513 ;;		None
   514 ;; Return value:  Size  Location     Type
   515 ;;		None               void
   516 ;; Registers used:
   517 ;;		wreg, status,2
   518 ;; Tracked objects:
   519 ;;		On entry : 0/0
   520 ;;		On exit  : 0/0
   521 ;;		Unchanged: 0/0
   522 ;; Data sizes:     COMRAM   BANK0   BANK1   BANK2   BANK3   BANK4   BANK5   BANK6   BANK7
   523 ;;      Params:         0       0       0       0       0       0       0       0       0
   524 ;;      Locals:         0       0       0       0       0       0       0       0       0
   525 ;;      Temps:          0       0       0       0       0       0       0       0       0
   526 ;;      Totals:         0       0       0       0       0       0       0       0       0
   527 ;;Total ram usage:        0 bytes
   528 ;; Hardware stack levels used:    1
   529 ;; This function calls:
   530 ;;		Nothing
   531 ;; This function is called by:
   532 ;;		_main
   533 ;; This function uses a non-reentrant model
   534 ;;
   535                           
   536                           	psect	text5
   537  00090E                     __ptext5:
   538                           	opt stack 0
   539  00090E                     _configOscillator:
   540                           	opt stack 30
   541                           
   542                           ;PICUART.c: 26: OSCCON = 0x66;
   543                           
   544                           ;incstack = 0
   545  00090E  0E66               	movlw	102
   546  000910  6ED3               	movwf	4051,c	;volatile
   547  000912  0012               	return	
   548  000914                     __end_of_configOscillator:
   549                           	opt stack 0
   550                           tblptru	equ	0xFF8
   551                           tblptrh	equ	0xFF7
   552                           tblptrl	equ	0xFF6
   553                           tablat	equ	0xFF5
   554                           wreg	equ	0xFE8
   555                           status	equ	0xFD8
   556                           tblptru	equ	0xFF8
   557                           tblptrh	equ	0xFF7
   558                           tblptrl	equ	0xFF6
   559                           tablat	equ	0xFF5
   560                           wreg	equ	0xFE8
   561                           status	equ	0xFD8
   562                           
   563                           	psect	rparam
   564  0000                     tblptru	equ	0xFF8
   565                           tblptrh	equ	0xFF7
   566                           tblptrl	equ	0xFF6
   567                           tablat	equ	0xFF5
   568                           wreg	equ	0xFE8
   569                           status	equ	0xFD8


Data Sizes:
    Strings     15
    Constant    0
    Data        0
    BSS         1
    Persistent  0
    Stack       0

Auto Spaces:
    Space          Size  Autos    Used
    COMRAM           95     11      12
    BANK0           160      0       0
    BANK1           256      0       0
    BANK2           256      0       0
    BANK3           256      0       0
    BANK4           256      0       0
    BANK5           256      0       0
    BANK6           256      0       0
    BANK7           256      0       0

Pointer List with Targets:

    putrs1USART@data	PTR const unsigned char  size(2) Largest target is 15
		 -> STR_1(CODE[15]), 


Critical Paths under _main in COMRAM

    _main->_configUSART
    _putrs1USART->_Write1USART
    _configUSART->_Open1USART

Critical Paths under _main in BANK0

    None.

Critical Paths under _main in BANK1

    None.

Critical Paths under _main in BANK2

    None.

Critical Paths under _main in BANK3

    None.

Critical Paths under _main in BANK4

    None.

Critical Paths under _main in BANK5

    None.

Critical Paths under _main in BANK6

    None.

Critical Paths under _main in BANK7

    None.

Call Graph Tables:

 ---------------------------------------------------------------------------------
 (Depth) Function   	        Calls       Base Space   Used Autos Params    Refs
 ---------------------------------------------------------------------------------
 (0) _main                                                 3     3      0     341
                                              8 COMRAM     3     3      0
                   _configOscillator
                        _configUSART
                        _putrs1USART
 ---------------------------------------------------------------------------------
 (1) _putrs1USART                                          2     0      2      88
                                              1 COMRAM     2     0      2
                        _Write1USART
 ---------------------------------------------------------------------------------
 (2) _Write1USART                                          1     1      0      15
                                              0 COMRAM     1     1      0
 ---------------------------------------------------------------------------------
 (1) _configUSART                                          2     2      0     223
                                              6 COMRAM     2     2      0
                         _Open1USART
 ---------------------------------------------------------------------------------
 (2) _Open1USART                                           6     4      2     193
                                              0 COMRAM     6     4      2
 ---------------------------------------------------------------------------------
 (1) _configOscillator                                     0     0      0       0
 ---------------------------------------------------------------------------------
 Estimated maximum stack depth 2
 ---------------------------------------------------------------------------------

 Call Graph Graphs:

 _main (ROOT)
   _configOscillator
   _configUSART
     _Open1USART
   _putrs1USART
     _Write1USART

 Address spaces:
Name               Size   Autos  Total    Cost      Usage
BIGRAM             7FF      0       0      21        0.0%
EEDATA             100      0       0       0        0.0%
BITBANK7           100      0       0      19        0.0%
BANK7              100      0       0      20        0.0%
BITBANK6           100      0       0      17        0.0%
BANK6              100      0       0      18        0.0%
BITBANK5           100      0       0      15        0.0%
BANK5              100      0       0      16        0.0%
BITBANK4           100      0       0      13        0.0%
BANK4              100      0       0      14        0.0%
BITBANK3           100      0       0      11        0.0%
BANK3              100      0       0      12        0.0%
BITBANK2           100      0       0       9        0.0%
BANK2              100      0       0      10        0.0%
BITBANK1           100      0       0       7        0.0%
BANK1              100      0       0       8        0.0%
BITBANK0            A0      0       0       4        0.0%
BANK0               A0      0       0       5        0.0%
BITCOMRAM           5F      0       0       0        0.0%
COMRAM              5F      B       C       1       12.6%
BITSFR_1             0      0       0      40        0.0%
SFR_1                0      0       0      40        0.0%
BITSFR               0      0       0      40        0.0%
SFR                  0      0       0      40        0.0%
STACK                0      0       0       2        0.0%
NULL                 0      0       0       0        0.0%
ABS                  0      0       C       6        0.0%
DATA                 0      0       C       3        0.0%
CODE                 0      0       0       0        0.0%


Microchip Technology PIC18 Macro Assembler V1.33 build 59893 
Symbol Table                                                                                   Mon Jan 12 17:01:48 2015

                       l42 0834                         l46 0846                         l48 0850  
                       l49 0852                         l58 08AA               __CFG_CP0$OFF 000000  
             __CFG_CP1$OFF 000000               __CFG_CP2$OFF 000000               __CFG_CP3$OFF 000000  
                      l705 08F8                        l719 0872                        l677 0836  
                      l669 0828                        l689 0848               __CFG_CPB$OFF 000000  
                      u157 089C               __CFG_CPD$OFF 000000                _putrs1USART 08AA  
                      wreg 000FE8                 _TXSTA1bits 000FAC               __CFG_LVP$OFF 000000  
                     STR_1 0801                       _main 086A              __CFG_BORV$190 000000  
                     start 0000              __CFG_IESO$OFF 000000              __CFG_MCLRE$ON 000000  
                    ?_main 0001              __CFG_WDTEN$ON 000000              __CFG_WRT0$OFF 000000  
            __CFG_WRT1$OFF 000000              __CFG_WRT2$OFF 000000              __CFG_WRT3$OFF 000000  
           __CFG_EBTR0$OFF 000000             __CFG_FCMEN$OFF 000000             __CFG_EBTR1$OFF 000000  
           __CFG_EBTR2$OFF 000000             __CFG_EBTR3$OFF 000000  __size_of_configOscillator 0006  
            __CFG_WRTB$OFF 000000              __CFG_WRTC$OFF 000000              __CFG_WRTD$OFF 000000  
           __CFG_EBTRB$OFF 000000                      tablat 000FF5                      status 000FD8  
           __CFG_T3CMX$RC0 000000             __CFG_ICPRT$OFF 000000            __initialization 08FE  
             __end_of_main 08AA             __CFG_PCLKEN$ON 000000                 _Open1USART 0812  
                   ??_main 0009              __activetblptr 000001             __CFG_SDOMX$RB3 000000  
          __CFG_CCP2MX$RC1 000000                     _RCSTA1 000FAB                     _OSCCON 000FD3  
                   _SPBRG1 000FAF                     _TXREG1 000FAD                     _TXSTA1 000FAC  
     __size_of_configUSART 0016             __CFG_XINST$OFF 000000             __CFG_STVREN$ON 000000  
             __mediumconst 0000                     tblptrh 000FF7                     tblptrl 000FF6  
                   tblptru 000FF8       __CFG_LS48MHZ$SYS24X4 000000                 __accesstop 0060  
  __end_of__initialization 0900            __CFG_PBADEN$OFF 000000             __pcstackCOMRAM 0001  
         __CFG_nPWRTEN$OFF 000000                ?_Open1USART 0001               ?_putrs1USART 0002  
         _configOscillator 090E              ??_Write1USART 0001          __CFG_PLLSEL$PLL4X 000000  
         configUSART@spbrg 0008           Open1USART@config 0006                    _SPBRGH1 000FB0  
      __size_of_Open1USART 0058                    __Hparam 0000                    __Lparam 0000  
      __end_of_Write1USART 08FE               __psmallconst 0800                    __pcinit 08FE  
                  __ramtop 0800                    __ptext0 086A                    __ptext1 08AA  
                  __ptext2 08EC                    __ptext3 08D6                    __ptext4 0812  
                  __ptext5 090E       end_of_initialization 0900       __size_of_putrs1USART 002C  
            ??_configUSART 0007                _Write1USART 08EC   __end_of_configOscillator 0914  
             ??_Open1USART 0003        start_initialization 08FE            __CFG_nLPBOR$OFF 000000  
       __end_of_Open1USART 086A        __end_of_configUSART 08EC                __pbssCOMRAM 000C  
      __end_of__stringdata 0810            Open1USART@spbrg 0001                __smallconst 0800  
        configUSART@config 0007            Write1USART@data 0001                _configUSART 08D6  
                 _PIE1bits 000F9D           __CFG_WDTPS$32768 000000                __stringdata 0801  
                main@delay 000A          __CFG_CFGPLLEN$OFF 000000               ?_Write1USART 0001  
                 __Hrparam 0000                   __Lrparam 0000               __Lsmallconst 0800  
       __CFG_BOREN$SBORDIS 000000          ?_configOscillator 0001         ??_configOscillator 0001  
            ??_putrs1USART 0004              __size_of_main 0040              _USART1_Status 000C  
          putrs1USART@data 0002        __end_of_putrs1USART 08D6                 _RCSTA1bits 000FAB  
     __CFG_CPUDIV$NOCLKDIV 000000         __CFG_FOSC$INTOSCIO 000000               ?_configUSART 0001  
     __size_of_Write1USART 0012  
